target datalayout = "e-m:e-p270:32:32-p271:32:32-p272:64:64-i64:64-i128:128-f80:128-n8:16:32:64-S128"
target triple = "x86_64-pc-linux-gnu"

%struct.dictType = type { ptr, ptr, ptr, ptr, ptr, ptr, ptr, ptr, ptr, ptr, ptr, i8, ptr, ptr, ptr }
%struct.dict = type { ptr, [2 x ptr], [2 x i64], i64, i16, [2 x i8], i16, [0 x ptr] }

@.str = private unnamed_addr constant [50 x i8] c"memcmp((*d)->type, &toCmp, sizeof(dictType)) == 0\00", align 1
@.str.1 = private unnamed_addr constant [7 x i8] c"dict.c\00", align 1

; Function Attrs: nounwind uwtable
define dso_local void @dictTypeAddMeta(ptr noundef %0, ptr noundef %1) #0 {
  %3 = alloca ptr, align 8
  %4 = alloca ptr, align 8
  %5 = alloca %struct.dictType, align 8
  store ptr %0, ptr %3, align 8, !tbaa !22
  store ptr %1, ptr %4, align 8, !tbaa !13
  call void @llvm.lifetime.start.p0(i64 120, ptr %5) #14
  %6 = load ptr, ptr %4, align 8, !tbaa !13
  call void @llvm.memcpy.p0.p0.i64(ptr align 8 %5, ptr align 8 %6, i64 120, i1 false), !tbaa.struct !24
  %7 = getelementptr inbounds nuw %struct.dictType, ptr %5, i32 0, i32 9
  store ptr null, ptr %7, align 8, !tbaa !15
  %8 = load ptr, ptr %3, align 8, !tbaa !22
  %9 = load ptr, ptr %8, align 8, !tbaa !18
  %10 = getelementptr inbounds nuw %struct.dict, ptr %9, i32 0, i32 0
  %11 = load ptr, ptr %10, align 8, !tbaa !13
  %12 = getelementptr inbounds nuw %struct.dictType, ptr %11, i32 0, i32 14
  %13 = load ptr, ptr %12, align 8, !tbaa !26
  %14 = getelementptr inbounds nuw %struct.dictType, ptr %5, i32 0, i32 14
  store ptr %13, ptr %14, align 8, !tbaa !26
  %15 = load ptr, ptr %3, align 8, !tbaa !22
  %16 = load ptr, ptr %15, align 8, !tbaa !18
  %17 = getelementptr inbounds nuw %struct.dict, ptr %16, i32 0, i32 0
  %18 = load ptr, ptr %17, align 8, !tbaa !13
  %19 = call i32 @memcmp(ptr noundef %18, ptr noundef %5, i64 noundef 120) #16
  %20 = icmp eq i32 %19, 0
  %21 = xor i1 %20, true
  %22 = xor i1 %21, true
  %23 = zext i1 %22 to i32
  %24 = sext i32 %23 to i64
  %25 = call i64 @llvm.expect.i64(i64 %24, i64 1)
  %26 = icmp ne i64 %25, 0
  br i1 %26, label %27, label %28

27:                                               ; preds = %2
  br label %30

28:                                               ; preds = %2
  call void @_serverAssert(ptr noundef @.str, ptr noundef @.str.1, i32 noundef 204)
  call void @abort() #17
  unreachable

29:                                               ; No predecessors!
  br label %30

30:                                               ; preds = %29, %27
  %31 = load ptr, ptr %3, align 8, !tbaa !22
  %32 = load ptr, ptr %31, align 8, !tbaa !18
  %33 = load ptr, ptr %4, align 8, !tbaa !13
  %34 = getelementptr inbounds nuw %struct.dictType, ptr %33, i32 0, i32 9
  %35 = load ptr, ptr %34, align 8, !tbaa !15
  %36 = load ptr, ptr %3, align 8, !tbaa !22
  %37 = load ptr, ptr %36, align 8, !tbaa !18
  %38 = call i64 %35(ptr noundef %37)
  %39 = add i64 56, %38
  %40 = call ptr @zrealloc(ptr noundef %32, i64 noundef %39) #18
  %41 = load ptr, ptr %3, align 8, !tbaa !22
  store ptr %40, ptr %41, align 8, !tbaa !18
  %42 = load ptr, ptr %4, align 8, !tbaa !13
  %43 = load ptr, ptr %3, align 8, !tbaa !22
  %44 = load ptr, ptr %43, align 8, !tbaa !18
  %45 = getelementptr inbounds nuw %struct.dict, ptr %44, i32 0, i32 0
  store ptr %42, ptr %45, align 8, !tbaa !13
  call void @llvm.lifetime.end.p0(i64 120, ptr %5) #14
  ret void
}