; Function Attrs: nounwind uwtable
define dso_local void @dictTypeAddMeta(ptr noundef captures(none) %0, ptr noundef %1) local_unnamed_addr #3 {
  %3 = alloca %struct.dictType, align 8
  call void @llvm.lifetime.start.p0(i64 120, ptr nonnull %3) #25
  call void @llvm.memcpy.p0.p0.i64(ptr noundef nonnull align 8 dereferenceable(120) %3, ptr noundef nonnull align 8 dereferenceable(120) %1, i64 112, i1 false), !tbaa.struct !20
  %4 = getelementptr inbounds nuw i8, ptr %3, i64 72
  store ptr null, ptr %4, align 8, !tbaa !5
  %5 = load ptr, ptr %0, align 8, !tbaa !22
  %6 = load ptr, ptr %5, align 8, !tbaa !16
  %7 = getelementptr inbounds nuw i8, ptr %6, i64 112
  %8 = load ptr, ptr %7, align 8, !tbaa !24
  %9 = getelementptr inbounds nuw i8, ptr %3, i64 112
  store ptr %8, ptr %9, align 8, !tbaa !24
  %bcmp = call i32 @bcmp(ptr noundef nonnull dereferenceable(120) %6, ptr noundef nonnull dereferenceable(120) %3, i64 120)
  %10 = icmp eq i32 %bcmp, 0
  br i1 %10, label %12, label %11, !prof !25

11:                                               ; preds = %2
  tail call void @_serverAssert(ptr noundef nonnull @.str, ptr noundef nonnull @.str.1, i32 noundef 204) #25
  tail call void @abort() #27
  unreachable

12:                                               ; preds = %2
  %13 = getelementptr inbounds nuw i8, ptr %1, i64 72
  %14 = load ptr, ptr %13, align 8, !tbaa !5
  %15 = tail call i64 %14(ptr noundef nonnull %5) #25
  %16 = add i64 %15, 56
  %17 = tail call ptr @zrealloc(ptr noundef nonnull %5, i64 noundef %16) #28
  store ptr %17, ptr %0, align 8, !tbaa !22
  store ptr %1, ptr %17, align 8, !tbaa !16
  call void @llvm.lifetime.end.p0(i64 120, ptr nonnull %3) #25
  ret void
}